; Function Attrs: mustprogress uwtable
define dso_local i64 @_ZN5cmsys11SystemTools14GetPermissionsERKNSt7__cxx1112basic_stringIcSt11char_traitsIcESaIcEEERj(ptr noundef nonnull readonly align 8 captures(none) dereferenceable(32) %0, ptr noundef nonnull writeonly align 4 captures(none) dereferenceable(4) %1) local_unnamed_addr #6 align 2 {
  %3 = alloca %struct.stat, align 8
  call void @llvm.lifetime.start.p0(i64 144, ptr nonnull %3) #39
  %4 = load ptr, ptr %0, align 8, !tbaa !21
  %5 = call i32 @stat(ptr noundef %4, ptr noundef nonnull %3) #39
  %6 = icmp slt i32 %5, 0
  br i1 %6, label %7, label %9

7:                                                ; preds = %2
  %8 = tail call i64 @_ZN5cmsys6Status11POSIX_errnoEv()
  br label %12

9:                                                ; preds = %2
  %10 = getelementptr inbounds nuw i8, ptr %3, i64 24
  %11 = load i32, ptr %10, align 8, !tbaa !113
  store i32 %11, ptr %1, align 4, !tbaa !42
  br label %12

12:                                               ; preds = %9, %7
  %.sroa.0.0 = phi i64 [ %8, %7 ], [ 0, %9 ]
  call void @llvm.lifetime.end.p0(i64 144, ptr nonnull %3) #39
  ret i64 %.sroa.0.0
}